target datalayout = "e-m:e-p270:32:32-p271:32:32-p272:64:64-i64:64-i128:128-f80:128-n8:16:32:64-S128"
target triple = "x86_64-pc-linux-gnu"

%"class.tbb::detail::d1::mutex" = type { %"class.tbb::detail::d1::waitable_atomic" }
%"class.tbb::detail::d1::waitable_atomic" = type { %"struct.std::atomic" }
%"struct.std::atomic" = type { %"struct.std::__atomic_base" }
%"struct.std::__atomic_base" = type { i8 }
%"class.std::unique_ptr" = type { %"struct.std::__uniq_ptr_data" }
%"struct.std::__uniq_ptr_data" = type { %"class.std::__uniq_ptr_impl" }
%"class.std::__uniq_ptr_impl" = type { %"class.std::tuple" }
%"class.std::tuple" = type { %"struct.std::_Tuple_impl" }
%"struct.std::_Tuple_impl" = type { %"struct.std::_Head_base.1" }
%"struct.std::_Head_base.1" = type { ptr }
%"class.tbb::detail::r1::tcm_adaptor" = type { %"class.tbb::detail::r1::permit_manager", %"class.std::unique_ptr" }
%"class.tbb::detail::r1::permit_manager" = type { ptr, ptr }
%"struct.tbb::detail::r1::tcm_adaptor_impl" = type { %"class.tbb::detail::d1::mutex", i64 }

@_ZN3tbb6detail2r112_GLOBAL__N_114tcm_disconnectE = internal global ptr null, align 8

; Function Attrs: mustprogress nounwind sspstrong uwtable
define linkonce_odr noundef nonnull align 1 dereferenceable(1) ptr @_ZNSt10_Head_baseILm1EN3tbb6detail2r121cache_aligned_deleterELb1EE7_M_headERS4_(ptr noundef nonnull align 1 dereferenceable(1) %0) #5 comdat align 2 {
  %2 = alloca ptr, align 8
  store ptr %0, ptr %2, align 8, !tbaa !124
  %3 = load ptr, ptr %2, align 8, !tbaa !124
  ret ptr %3
}

; Function Attrs: mustprogress nounwind sspstrong uwtable
define linkonce_odr noundef nonnull align 8 dereferenceable(8) ptr @_ZNSt10_Head_baseILm0EPN3tbb6detail2r116tcm_adaptor_implELb0EE7_M_headERKS5_(ptr noundef nonnull align 8 dereferenceable(8) %0) #5 comdat align 2 {
  %2 = alloca ptr, align 8
  store ptr %0, ptr %2, align 8, !tbaa !120
  %3 = load ptr, ptr %2, align 8, !tbaa !120
  %4 = getelementptr inbounds nuw %"struct.std::_Head_base.1", ptr %3, i32 0, i32 0
  ret ptr %4
}

; Function Attrs: mustprogress nounwind sspstrong uwtable
define linkonce_odr noundef nonnull align 1 dereferenceable(1) ptr @_ZNSt11_Tuple_implILm1EJN3tbb6detail2r121cache_aligned_deleterEEE7_M_headERS4_(ptr noundef nonnull align 1 dereferenceable(1) %0) #5 comdat align 2 {
  %2 = alloca ptr, align 8
  store ptr %0, ptr %2, align 8, !tbaa !118
  %3 = load ptr, ptr %2, align 8, !tbaa !118
  %4 = call noundef nonnull align 1 dereferenceable(1) ptr @_ZNSt10_Head_baseILm1EN3tbb6detail2r121cache_aligned_deleterELb1EE7_M_headERS4_(ptr noundef nonnull align 1 dereferenceable(1) %3) #3
  ret ptr %4
}

; Function Attrs: mustprogress nounwind sspstrong uwtable
define linkonce_odr noundef nonnull align 8 dereferenceable(8) ptr @_ZNSt10_Head_baseILm0EPN3tbb6detail2r116tcm_adaptor_implELb0EE7_M_headERS5_(ptr noundef nonnull align 8 dereferenceable(8) %0) #5 comdat align 2 {
  %2 = alloca ptr, align 8
  store ptr %0, ptr %2, align 8, !tbaa !120
  %3 = load ptr, ptr %2, align 8, !tbaa !120
  %4 = getelementptr inbounds nuw %"struct.std::_Head_base.1", ptr %3, i32 0, i32 0
  ret ptr %4
}

; Function Attrs: mustprogress nounwind sspstrong uwtable
define linkonce_odr noundef nonnull align 8 dereferenceable(8) ptr @_ZNSt11_Tuple_implILm0EJPN3tbb6detail2r116tcm_adaptor_implENS2_21cache_aligned_deleterEEE7_M_headERKS6_(ptr noundef nonnull align 8 dereferenceable(8) %0) #5 comdat align 2 {
  %2 = alloca ptr, align 8
  store ptr %0, ptr %2, align 8, !tbaa !116
  %3 = load ptr, ptr %2, align 8, !tbaa !116
  %4 = call noundef nonnull align 8 dereferenceable(8) ptr @_ZNSt10_Head_baseILm0EPN3tbb6detail2r116tcm_adaptor_implELb0EE7_M_headERKS5_(ptr noundef nonnull align 8 dereferenceable(8) %3) #3
  ret ptr %4
}

; Function Attrs: mustprogress nounwind sspstrong uwtable
define linkonce_odr noundef nonnull align 1 dereferenceable(1) ptr @_ZSt12__get_helperILm1EN3tbb6detail2r121cache_aligned_deleterEJEERT0_RSt11_Tuple_implIXT_EJS4_DpT1_EE(ptr noundef nonnull align 1 dereferenceable(1) %0) #5 comdat {
  %2 = alloca ptr, align 8
  store ptr %0, ptr %2, align 8, !tbaa !118
  %3 = load ptr, ptr %2, align 8, !tbaa !118
  %4 = call noundef nonnull align 1 dereferenceable(1) ptr @_ZNSt11_Tuple_implILm1EJN3tbb6detail2r121cache_aligned_deleterEEE7_M_headERS4_(ptr noundef nonnull align 1 dereferenceable(1) %3) #3
  ret ptr %4
}

; Function Attrs: mustprogress nounwind sspstrong uwtable
define linkonce_odr noundef nonnull align 8 dereferenceable(8) ptr @_ZNSt11_Tuple_implILm0EJPN3tbb6detail2r116tcm_adaptor_implENS2_21cache_aligned_deleterEEE7_M_headERS6_(ptr noundef nonnull align 8 dereferenceable(8) %0) #5 comdat align 2 {
  %2 = alloca ptr, align 8
  store ptr %0, ptr %2, align 8, !tbaa !116
  %3 = load ptr, ptr %2, align 8, !tbaa !116
  %4 = call noundef nonnull align 8 dereferenceable(8) ptr @_ZNSt10_Head_baseILm0EPN3tbb6detail2r116tcm_adaptor_implELb0EE7_M_headERS5_(ptr noundef nonnull align 8 dereferenceable(8) %3) #3
  ret ptr %4
}

; Function Attrs: mustprogress nounwind sspstrong uwtable
define linkonce_odr noundef nonnull align 8 dereferenceable(8) ptr @_ZSt12__get_helperILm0EPN3tbb6detail2r116tcm_adaptor_implEJNS2_21cache_aligned_deleterEEERKT0_RKSt11_Tuple_implIXT_EJS6_DpT1_EE(ptr noundef nonnull align 8 dereferenceable(8) %0) #5 comdat {
  %2 = alloca ptr, align 8
  store ptr %0, ptr %2, align 8, !tbaa !116
  %3 = load ptr, ptr %2, align 8, !tbaa !116
  %4 = call noundef nonnull align 8 dereferenceable(8) ptr @_ZNSt11_Tuple_implILm0EJPN3tbb6detail2r116tcm_adaptor_implENS2_21cache_aligned_deleterEEE7_M_headERKS6_(ptr noundef nonnull align 8 dereferenceable(8) %3) #3
  ret ptr %4
}

; Function Attrs: mustprogress nounwind sspstrong uwtable
define linkonce_odr noundef nonnull align 1 dereferenceable(1) ptr @_ZSt3getILm1EJPN3tbb6detail2r116tcm_adaptor_implENS2_21cache_aligned_deleterEEERNSt13tuple_elementIXT_ESt5tupleIJDpT0_EEE4typeERSA_(ptr noundef nonnull align 8 dereferenceable(8) %0) #5 comdat {
  %2 = alloca ptr, align 8
  store ptr %0, ptr %2, align 8, !tbaa !114
  %3 = load ptr, ptr %2, align 8, !tbaa !114
  %4 = call noundef nonnull align 1 dereferenceable(1) ptr @_ZSt12__get_helperILm1EN3tbb6detail2r121cache_aligned_deleterEJEERT0_RSt11_Tuple_implIXT_EJS4_DpT1_EE(ptr noundef nonnull align 1 dereferenceable(1) %3) #3
  ret ptr %4
}

; Function Attrs: mustprogress nounwind sspstrong uwtable
define linkonce_odr noundef nonnull align 8 dereferenceable(8) ptr @_ZSt12__get_helperILm0EPN3tbb6detail2r116tcm_adaptor_implEJNS2_21cache_aligned_deleterEEERT0_RSt11_Tuple_implIXT_EJS6_DpT1_EE(ptr noundef nonnull align 8 dereferenceable(8) %0) #5 comdat {
  %2 = alloca ptr, align 8
  store ptr %0, ptr %2, align 8, !tbaa !116
  %3 = load ptr, ptr %2, align 8, !tbaa !116
  %4 = call noundef nonnull align 8 dereferenceable(8) ptr @_ZNSt11_Tuple_implILm0EJPN3tbb6detail2r116tcm_adaptor_implENS2_21cache_aligned_deleterEEE7_M_headERS6_(ptr noundef nonnull align 8 dereferenceable(8) %3) #3
  ret ptr %4
}

; Function Attrs: mustprogress nounwind sspstrong uwtable
define linkonce_odr noundef nonnull align 8 dereferenceable(8) ptr @_ZSt3getILm0EJPN3tbb6detail2r116tcm_adaptor_implENS2_21cache_aligned_deleterEEERKNSt13tuple_elementIXT_ESt5tupleIJDpT0_EEE4typeERKSA_(ptr noundef nonnull align 8 dereferenceable(8) %0) #5 comdat {
  %2 = alloca ptr, align 8
  store ptr %0, ptr %2, align 8, !tbaa !114
  %3 = load ptr, ptr %2, align 8, !tbaa !114
  %4 = call noundef nonnull align 8 dereferenceable(8) ptr @_ZSt12__get_helperILm0EPN3tbb6detail2r116tcm_adaptor_implEJNS2_21cache_aligned_deleterEEERKT0_RKSt11_Tuple_implIXT_EJS6_DpT1_EE(ptr noundef nonnull align 8 dereferenceable(8) %3) #3
  ret ptr %4
}

; Function Attrs: mustprogress nounwind sspstrong uwtable
define linkonce_odr noundef nonnull align 1 dereferenceable(1) ptr @_ZNSt15__uniq_ptr_implIN3tbb6detail2r116tcm_adaptor_implENS2_21cache_aligned_deleterEE10_M_deleterEv(ptr noundef nonnull align 8 dereferenceable(8) %0) #5 comdat align 2 {
  %2 = alloca ptr, align 8
  store ptr %0, ptr %2, align 8, !tbaa !112
  %3 = load ptr, ptr %2, align 8
  %4 = getelementptr inbounds nuw %"class.std::__uniq_ptr_impl", ptr %3, i32 0, i32 0
  %5 = call noundef nonnull align 1 dereferenceable(1) ptr @_ZSt3getILm1EJPN3tbb6detail2r116tcm_adaptor_implENS2_21cache_aligned_deleterEEERNSt13tuple_elementIXT_ESt5tupleIJDpT0_EEE4typeERSA_(ptr noundef nonnull align 8 dereferenceable(8) %4) #3
  ret ptr %5
}

; Function Attrs: mustprogress nounwind sspstrong uwtable
define linkonce_odr noundef nonnull align 8 dereferenceable(8) ptr @_ZSt3getILm0EJPN3tbb6detail2r116tcm_adaptor_implENS2_21cache_aligned_deleterEEERNSt13tuple_elementIXT_ESt5tupleIJDpT0_EEE4typeERSA_(ptr noundef nonnull align 8 dereferenceable(8) %0) #5 comdat {
  %2 = alloca ptr, align 8
  store ptr %0, ptr %2, align 8, !tbaa !114
  %3 = load ptr, ptr %2, align 8, !tbaa !114
  %4 = call noundef nonnull align 8 dereferenceable(8) ptr @_ZSt12__get_helperILm0EPN3tbb6detail2r116tcm_adaptor_implEJNS2_21cache_aligned_deleterEEERT0_RSt11_Tuple_implIXT_EJS6_DpT1_EE(ptr noundef nonnull align 8 dereferenceable(8) %3) #3
  ret ptr %4
}

; Function Attrs: mustprogress nounwind sspstrong uwtable
define linkonce_odr void @_ZNSt15__uniq_ptr_implIN3tbb6detail2r116tcm_adaptor_implENS2_21cache_aligned_deleterEE5resetEPS3_(ptr noundef nonnull align 8 dereferenceable(8) %0, ptr noundef %1) #5 comdat align 2 personality ptr @__gxx_personality_v0 {
  %3 = alloca ptr, align 8
  %4 = alloca ptr, align 8
  %5 = alloca ptr, align 8
  store ptr %0, ptr %3, align 8, !tbaa !112
  store ptr %1, ptr %4, align 8, !tbaa !60
  %6 = load ptr, ptr %3, align 8
  call void @llvm.lifetime.start.p0(i64 8, ptr %5) #3
  %7 = call noundef nonnull align 8 dereferenceable(8) ptr @_ZNSt15__uniq_ptr_implIN3tbb6detail2r116tcm_adaptor_implENS2_21cache_aligned_deleterEE6_M_ptrEv(ptr noundef nonnull align 8 dereferenceable(8) %6) #3
  %8 = load ptr, ptr %7, align 8, !tbaa !60
  store ptr %8, ptr %5, align 8, !tbaa !60
  %9 = load ptr, ptr %4, align 8, !tbaa !60
  %10 = call noundef nonnull align 8 dereferenceable(8) ptr @_ZNSt15__uniq_ptr_implIN3tbb6detail2r116tcm_adaptor_implENS2_21cache_aligned_deleterEE6_M_ptrEv(ptr noundef nonnull align 8 dereferenceable(8) %6) #3
  store ptr %9, ptr %10, align 8, !tbaa !60
  %11 = load ptr, ptr %5, align 8, !tbaa !60
  %12 = icmp ne ptr %11, null
  br i1 %12, label %13, label %17

13:                                               ; preds = %2
  %14 = call noundef nonnull align 1 dereferenceable(1) ptr @_ZNSt15__uniq_ptr_implIN3tbb6detail2r116tcm_adaptor_implENS2_21cache_aligned_deleterEE10_M_deleterEv(ptr noundef nonnull align 8 dereferenceable(8) %6) #3
  %15 = load ptr, ptr %5, align 8, !tbaa !60
  invoke void @_ZNK3tbb6detail2r121cache_aligned_deleterclINS1_16tcm_adaptor_implEEEvPT_(ptr noundef nonnull align 1 dereferenceable(1) %14, ptr noundef %15)
          to label %16 unwind label %18

16:                                               ; preds = %13
  br label %17

17:                                               ; preds = %16, %2
  call void @llvm.lifetime.end.p0(i64 8, ptr %5) #3
  ret void

18:                                               ; preds = %13
  %19 = landingpad { ptr, i32 }
          catch ptr null
  %20 = extractvalue { ptr, i32 } %19, 0
  call void @__clang_call_terminate(ptr %20) #15
  unreachable
}

; Function Attrs: mustprogress nounwind sspstrong uwtable
define linkonce_odr noundef ptr @_ZNKSt15__uniq_ptr_implIN3tbb6detail2r116tcm_adaptor_implENS2_21cache_aligned_deleterEE6_M_ptrEv(ptr noundef nonnull align 8 dereferenceable(8) %0) #5 comdat align 2 {
  %2 = alloca ptr, align 8
  store ptr %0, ptr %2, align 8, !tbaa !112
  %3 = load ptr, ptr %2, align 8
  %4 = getelementptr inbounds nuw %"class.std::__uniq_ptr_impl", ptr %3, i32 0, i32 0
  %5 = call noundef nonnull align 8 dereferenceable(8) ptr @_ZSt3getILm0EJPN3tbb6detail2r116tcm_adaptor_implENS2_21cache_aligned_deleterEEERKNSt13tuple_elementIXT_ESt5tupleIJDpT0_EEE4typeERKSA_(ptr noundef nonnull align 8 dereferenceable(8) %4) #3
  %6 = load ptr, ptr %5, align 8, !tbaa !60
  ret ptr %6
}

; Function Attrs: mustprogress sspstrong uwtable
define linkonce_odr void @_ZNK3tbb6detail2r121cache_aligned_deleterclINS1_16tcm_adaptor_implEEEvPT_(ptr noundef nonnull align 1 dereferenceable(1) %0, ptr noundef %1) #4 comdat align 2 {
  %3 = alloca ptr, align 8
  %4 = alloca ptr, align 8
  store ptr %0, ptr %3, align 8, !tbaa !126
  store ptr %1, ptr %4, align 8, !tbaa !60
  %5 = load ptr, ptr %4, align 8, !tbaa !60
  call void @_ZN3tbb6detail2r124cache_aligned_deallocateEPv(ptr noundef %5)
  ret void
}

; Function Attrs: mustprogress nounwind sspstrong uwtable
define linkonce_odr noundef nonnull align 1 dereferenceable(1) ptr @_ZNSt10unique_ptrIN3tbb6detail2r116tcm_adaptor_implENS2_21cache_aligned_deleterEE11get_deleterEv(ptr noundef nonnull align 8 dereferenceable(8) %0) #5 comdat align 2 {
  %2 = alloca ptr, align 8
  store ptr %0, ptr %2, align 8, !tbaa !54
  %3 = load ptr, ptr %2, align 8
  %4 = getelementptr inbounds nuw %"class.std::unique_ptr", ptr %3, i32 0, i32 0
  %5 = call noundef nonnull align 1 dereferenceable(1) ptr @_ZNSt15__uniq_ptr_implIN3tbb6detail2r116tcm_adaptor_implENS2_21cache_aligned_deleterEE10_M_deleterEv(ptr noundef nonnull align 8 dereferenceable(8) %4) #3
  ret ptr %5
}

; Function Attrs: mustprogress nounwind sspstrong uwtable
define linkonce_odr noundef nonnull align 8 dereferenceable(8) ptr @_ZNSt15__uniq_ptr_implIN3tbb6detail2r116tcm_adaptor_implENS2_21cache_aligned_deleterEE6_M_ptrEv(ptr noundef nonnull align 8 dereferenceable(8) %0) #5 comdat align 2 {
  %2 = alloca ptr, align 8
  store ptr %0, ptr %2, align 8, !tbaa !112
  %3 = load ptr, ptr %2, align 8
  %4 = getelementptr inbounds nuw %"class.std::__uniq_ptr_impl", ptr %3, i32 0, i32 0
  %5 = call noundef nonnull align 8 dereferenceable(8) ptr @_ZSt3getILm0EJPN3tbb6detail2r116tcm_adaptor_implENS2_21cache_aligned_deleterEEERNSt13tuple_elementIXT_ESt5tupleIJDpT0_EEE4typeERSA_(ptr noundef nonnull align 8 dereferenceable(8) %4) #3
  ret ptr %5
}

; Function Attrs: mustprogress nounwind sspstrong uwtable
define linkonce_odr void @_ZNSt10unique_ptrIN3tbb6detail2r116tcm_adaptor_implENS2_21cache_aligned_deleterEE5resetEPS3_(ptr noundef nonnull align 8 dereferenceable(8) %0, ptr noundef %1) #5 comdat align 2 {
  %3 = alloca ptr, align 8
  %4 = alloca ptr, align 8
  store ptr %0, ptr %3, align 8, !tbaa !54
  store ptr %1, ptr %4, align 8, !tbaa !60
  %5 = load ptr, ptr %3, align 8
  %6 = getelementptr inbounds nuw %"class.std::unique_ptr", ptr %5, i32 0, i32 0
  %7 = load ptr, ptr %4, align 8, !tbaa !60
  call void @_ZNSt15__uniq_ptr_implIN3tbb6detail2r116tcm_adaptor_implENS2_21cache_aligned_deleterEE5resetEPS3_(ptr noundef nonnull align 8 dereferenceable(8) %6, ptr noundef %7) #3
  ret void
}

; Function Attrs: mustprogress nounwind sspstrong uwtable
define linkonce_odr noundef ptr @_ZNKSt10unique_ptrIN3tbb6detail2r116tcm_adaptor_implENS2_21cache_aligned_deleterEE3getEv(ptr noundef nonnull align 8 dereferenceable(8) %0) #5 comdat align 2 {
  %2 = alloca ptr, align 8
  store ptr %0, ptr %2, align 8, !tbaa !54
  %3 = load ptr, ptr %2, align 8
  %4 = getelementptr inbounds nuw %"class.std::unique_ptr", ptr %3, i32 0, i32 0
  %5 = call noundef ptr @_ZNKSt15__uniq_ptr_implIN3tbb6detail2r116tcm_adaptor_implENS2_21cache_aligned_deleterEE6_M_ptrEv(ptr noundef nonnull align 8 dereferenceable(8) %4) #3
  ret ptr %5
}

; Function Attrs: mustprogress nounwind sspstrong uwtable
define linkonce_odr void @_ZN3tbb6detail2r114permit_managerD2Ev(ptr noundef nonnull align 8 dereferenceable(16) %0) unnamed_addr #5 comdat align 2 {
  %2 = alloca ptr, align 8
  store ptr %0, ptr %2, align 8, !tbaa !49
  ret void
}

; Function Attrs: mustprogress nounwind sspstrong uwtable
define linkonce_odr void @_ZNSt10unique_ptrIN3tbb6detail2r116tcm_adaptor_implENS2_21cache_aligned_deleterEED2Ev(ptr noundef nonnull align 8 dereferenceable(8) %0) unnamed_addr #5 comdat align 2 personality ptr @__gxx_personality_v0 {
  %2 = alloca ptr, align 8
  %3 = alloca ptr, align 8
  store ptr %0, ptr %2, align 8, !tbaa !54
  %4 = load ptr, ptr %2, align 8
  call void @llvm.lifetime.start.p0(i64 8, ptr %3) #3
  %5 = getelementptr inbounds nuw %"class.std::unique_ptr", ptr %4, i32 0, i32 0
  %6 = call noundef nonnull align 8 dereferenceable(8) ptr @_ZNSt15__uniq_ptr_implIN3tbb6detail2r116tcm_adaptor_implENS2_21cache_aligned_deleterEE6_M_ptrEv(ptr noundef nonnull align 8 dereferenceable(8) %5) #3
  store ptr %6, ptr %3, align 8, !tbaa !58
  %7 = load ptr, ptr %3, align 8, !tbaa !58
  %8 = load ptr, ptr %7, align 8, !tbaa !60
  %9 = icmp ne ptr %8, null
  br i1 %9, label %10, label %15

10:                                               ; preds = %1
  %11 = call noundef nonnull align 1 dereferenceable(1) ptr @_ZNSt10unique_ptrIN3tbb6detail2r116tcm_adaptor_implENS2_21cache_aligned_deleterEE11get_deleterEv(ptr noundef nonnull align 8 dereferenceable(8) %4) #3
  %12 = load ptr, ptr %3, align 8, !tbaa !58
  %13 = load ptr, ptr %12, align 8, !tbaa !60
  invoke void @_ZNK3tbb6detail2r121cache_aligned_deleterclINS1_16tcm_adaptor_implEEEvPT_(ptr noundef nonnull align 1 dereferenceable(1) %11, ptr noundef %13)
          to label %14 unwind label %17

14:                                               ; preds = %10
  br label %15

15:                                               ; preds = %14, %1
  %16 = load ptr, ptr %3, align 8, !tbaa !58
  store ptr null, ptr %16, align 8, !tbaa !60
  call void @llvm.lifetime.end.p0(i64 8, ptr %3) #3
  ret void

17:                                               ; preds = %10
  %18 = landingpad { ptr, i32 }
          catch ptr null
  %19 = extractvalue { ptr, i32 } %18, 0
  call void @__clang_call_terminate(ptr %19) #15
  unreachable
}

; Function Attrs: mustprogress nounwind sspstrong uwtable
define linkonce_odr noundef nonnull align 8 dereferenceable(8) ptr @_ZNSt10unique_ptrIN3tbb6detail2r116tcm_adaptor_implENS2_21cache_aligned_deleterEEaSEDn(ptr noundef nonnull align 8 dereferenceable(8) %0, ptr %1) #5 comdat align 2 {
  %3 = alloca ptr, align 8
  %4 = alloca ptr, align 8
  store ptr %0, ptr %3, align 8, !tbaa !54
  store ptr %1, ptr %4, align 8, !tbaa !64
  %5 = load ptr, ptr %3, align 8
  call void @_ZNSt10unique_ptrIN3tbb6detail2r116tcm_adaptor_implENS2_21cache_aligned_deleterEE5resetEPS3_(ptr noundef nonnull align 8 dereferenceable(8) %5, ptr noundef null) #3
  ret ptr %5
}

; Function Attrs: mustprogress nounwind sspstrong uwtable
define linkonce_odr noundef ptr @_ZNKSt10unique_ptrIN3tbb6detail2r116tcm_adaptor_implENS2_21cache_aligned_deleterEEptEv(ptr noundef nonnull align 8 dereferenceable(8) %0) #5 comdat align 2 {
  %2 = alloca ptr, align 8
  store ptr %0, ptr %2, align 8, !tbaa !54
  %3 = load ptr, ptr %2, align 8
  %4 = call noundef ptr @_ZNKSt10unique_ptrIN3tbb6detail2r116tcm_adaptor_implENS2_21cache_aligned_deleterEE3getEv(ptr noundef nonnull align 8 dereferenceable(8) %3) #3
  ret ptr %4
}

; Function Attrs: mustprogress nounwind sspstrong uwtable
define linkonce_odr noundef zeroext i1 @_ZNKSt10unique_ptrIN3tbb6detail2r116tcm_adaptor_implENS2_21cache_aligned_deleterEEcvbEv(ptr noundef nonnull align 8 dereferenceable(8) %0) #5 comdat align 2 {
  %2 = alloca ptr, align 8
  store ptr %0, ptr %2, align 8, !tbaa !54
  %3 = load ptr, ptr %2, align 8
  %4 = call noundef ptr @_ZNKSt10unique_ptrIN3tbb6detail2r116tcm_adaptor_implENS2_21cache_aligned_deleterEE3getEv(ptr noundef nonnull align 8 dereferenceable(8) %3) #3
  %5 = icmp eq ptr %4, null
  %6 = select i1 %5, i1 false, i1 true
  ret i1 %6
}

; Function Attrs: mustprogress nounwind sspstrong uwtable
define void @_ZN3tbb6detail2r111tcm_adaptorD2Ev(ptr noundef nonnull align 8 dereferenceable(24) %0) unnamed_addr #5 align 2 personality ptr @__gxx_personality_v0 {
  %2 = alloca ptr, align 8
  %3 = alloca i32, align 4
  store ptr %0, ptr %2, align 8, !tbaa !44
  %4 = load ptr, ptr %2, align 8
  store ptr getelementptr inbounds inrange(-16, 56) ({ [9 x ptr] }, ptr @_ZTVN3tbb6detail2r111tcm_adaptorE, i32 0, i32 0, i32 2), ptr %4, align 8, !tbaa !45
  %5 = getelementptr inbounds nuw %"class.tbb::detail::r1::tcm_adaptor", ptr %4, i32 0, i32 1
  %6 = call noundef zeroext i1 @_ZNKSt10unique_ptrIN3tbb6detail2r116tcm_adaptor_implENS2_21cache_aligned_deleterEEcvbEv(ptr noundef nonnull align 8 dereferenceable(8) %5) #3
  br i1 %6, label %7, label %17

7:                                                ; preds = %1
  call void @llvm.lifetime.start.p0(i64 4, ptr %3) #3
  %8 = load ptr, ptr @_ZN3tbb6detail2r112_GLOBAL__N_114tcm_disconnectE, align 8, !tbaa !8
  %9 = getelementptr inbounds nuw %"class.tbb::detail::r1::tcm_adaptor", ptr %4, i32 0, i32 1
  %10 = call noundef ptr @_ZNKSt10unique_ptrIN3tbb6detail2r116tcm_adaptor_implENS2_21cache_aligned_deleterEEptEv(ptr noundef nonnull align 8 dereferenceable(8) %9) #3
  %11 = getelementptr inbounds nuw %"struct.tbb::detail::r1::tcm_adaptor_impl", ptr %10, i32 0, i32 1
  %12 = load i64, ptr %11, align 8, !tbaa !62
  %13 = invoke noundef i32 %8(i64 noundef %12)
          to label %14 unwind label %19

14:                                               ; preds = %7
  store i32 %13, ptr %3, align 4, !tbaa !36
  %15 = getelementptr inbounds nuw %"class.tbb::detail::r1::tcm_adaptor", ptr %4, i32 0, i32 1
  %16 = call noundef nonnull align 8 dereferenceable(8) ptr @_ZNSt10unique_ptrIN3tbb6detail2r116tcm_adaptor_implENS2_21cache_aligned_deleterEEaSEDn(ptr noundef nonnull align 8 dereferenceable(8) %15, ptr null) #3
  call void @llvm.lifetime.end.p0(i64 4, ptr %3) #3
  br label %17

17:                                               ; preds = %14, %1
  %18 = getelementptr inbounds nuw %"class.tbb::detail::r1::tcm_adaptor", ptr %4, i32 0, i32 1
  call void @_ZNSt10unique_ptrIN3tbb6detail2r116tcm_adaptor_implENS2_21cache_aligned_deleterEED2Ev(ptr noundef nonnull align 8 dereferenceable(8) %18) #3
  call void @_ZN3tbb6detail2r114permit_managerD2Ev(ptr noundef nonnull align 8 dereferenceable(16) %4) #3
  ret void

19:                                               ; preds = %7
  %20 = landingpad { ptr, i32 }
          catch ptr null
  %21 = extractvalue { ptr, i32 } %20, 0
  call void @__clang_call_terminate(ptr %21) #15
  unreachable
}