; Function Attrs: mustprogress nounwind sspstrong uwtable
define void @_ZN3tbb6detail2r111tcm_adaptorD2Ev(ptr noundef nonnull align 8 captures(none) dereferenceable(24) initializes((0, 8)) %0) unnamed_addr #7 align 2 personality ptr @__gxx_personality_v0 {
  store ptr getelementptr inbounds nuw inrange(-16, 56) (i8, ptr @_ZTVN3tbb6detail2r111tcm_adaptorE, i64 16), ptr %0, align 8, !tbaa !41
  %2 = getelementptr inbounds nuw i8, ptr %0, i64 16
  %3 = load ptr, ptr %2, align 8, !tbaa !59
  %.not = icmp eq ptr %3, null
  br i1 %.not, label %_ZNSt10unique_ptrIN3tbb6detail2r116tcm_adaptor_implENS2_21cache_aligned_deleterEED2Ev.exit, label %4

4:                                                ; preds = %1
  %5 = load ptr, ptr @_ZN3tbb6detail2r112_GLOBAL__N_114tcm_disconnectE, align 8, !tbaa !20
  %6 = getelementptr inbounds nuw i8, ptr %3, i64 8
  %7 = load i64, ptr %6, align 8, !tbaa !57
  %8 = invoke noundef i32 %5(i64 noundef %7)
          to label %9 unwind label %19

9:                                                ; preds = %4
  %10 = load ptr, ptr %2, align 8, !tbaa !59
  store ptr null, ptr %2, align 8, !tbaa !59
  %.not.i.i.i = icmp eq ptr %10, null
  br i1 %.not.i.i.i, label %_ZNSt10unique_ptrIN3tbb6detail2r116tcm_adaptor_implENS2_21cache_aligned_deleterEED2Ev.exit, label %11

11:                                               ; preds = %9
  invoke void @_ZN3tbb6detail2r124cache_aligned_deallocateEPv(ptr noundef nonnull %10)
          to label %_ZNSt10unique_ptrIN3tbb6detail2r116tcm_adaptor_implENS2_21cache_aligned_deleterEEaSEDn.exit unwind label %12

12:                                               ; preds = %11
  %13 = landingpad { ptr, i32 }
          catch ptr null
  %14 = extractvalue { ptr, i32 } %13, 0
  tail call void @__clang_call_terminate(ptr %14) #17
  unreachable

_ZNSt10unique_ptrIN3tbb6detail2r116tcm_adaptor_implENS2_21cache_aligned_deleterEEaSEDn.exit: ; preds = %11
  %.pr = load ptr, ptr %2, align 8, !tbaa !59
  %.not.i = icmp eq ptr %.pr, null
  br i1 %.not.i, label %_ZNSt10unique_ptrIN3tbb6detail2r116tcm_adaptor_implENS2_21cache_aligned_deleterEED2Ev.exit, label %15

15:                                               ; preds = %_ZNSt10unique_ptrIN3tbb6detail2r116tcm_adaptor_implENS2_21cache_aligned_deleterEEaSEDn.exit
  invoke void @_ZN3tbb6detail2r124cache_aligned_deallocateEPv(ptr noundef nonnull %.pr)
          to label %_ZNSt10unique_ptrIN3tbb6detail2r116tcm_adaptor_implENS2_21cache_aligned_deleterEED2Ev.exit unwind label %16

16:                                               ; preds = %15
  %17 = landingpad { ptr, i32 }
          catch ptr null
  %18 = extractvalue { ptr, i32 } %17, 0
  tail call void @__clang_call_terminate(ptr %18) #17
  unreachable

_ZNSt10unique_ptrIN3tbb6detail2r116tcm_adaptor_implENS2_21cache_aligned_deleterEED2Ev.exit: ; preds = %1, %9, %_ZNSt10unique_ptrIN3tbb6detail2r116tcm_adaptor_implENS2_21cache_aligned_deleterEEaSEDn.exit, %15
  store ptr null, ptr %2, align 8, !tbaa !59
  ret void

19:                                               ; preds = %4
  %20 = landingpad { ptr, i32 }
          catch ptr null
  %21 = extractvalue { ptr, i32 } %20, 0
  tail call void @__clang_call_terminate(ptr %21) #17
  unreachable
}